target datalayout = "e-m:e-p270:32:32-p271:32:32-p272:64:64-i64:64-i128:128-f80:128-n8:16:32:64-S128"
target triple = "x86_64-pc-linux-gnu"

%struct.UCHARBUF = type { ptr, ptr, ptr, i32, i32, i32, ptr, ptr, i8, i8 }

; Function Attrs: inlinehint mustprogress nounwind uwtable
define internal noundef signext i8 @_ZL9U_FAILURE10UErrorCode(i32 noundef %0) #4 {
  %2 = alloca i32, align 4
  store i32 %0, ptr %2, align 4, !tbaa !24
  %3 = load i32, ptr %2, align 4, !tbaa !24
  %4 = icmp sgt i32 %3, 0
  %5 = zext i1 %4 to i8
  ret i8 %5
}

; Function Attrs: mustprogress uwtable
define i32 @ucbuf_getc(ptr noundef %0, ptr noundef %1) #0 {
  %3 = alloca i32, align 4
  %4 = alloca ptr, align 8
  %5 = alloca ptr, align 8
  store ptr %0, ptr %4, align 8, !tbaa !28
  store ptr %1, ptr %5, align 8, !tbaa !15
  %6 = load ptr, ptr %5, align 8, !tbaa !15
  %7 = icmp eq ptr %6, null
  br i1 %7, label %13, label %8

8:                                                ; preds = %2
  %9 = load ptr, ptr %5, align 8, !tbaa !15
  %10 = load i32, ptr %9, align 4, !tbaa !24
  %11 = call noundef signext i8 @_ZL9U_FAILURE10UErrorCode(i32 noundef %10)
  %12 = icmp ne i8 %11, 0
  br i1 %12, label %13, label %14

13:                                               ; preds = %8, %2
  store i32 0, ptr %3, align 4
  br label %45

14:                                               ; preds = %8
  %15 = load ptr, ptr %4, align 8, !tbaa !28
  %16 = getelementptr inbounds nuw %struct.UCHARBUF, ptr %15, i32 0, i32 1
  %17 = load ptr, ptr %16, align 8, !tbaa !30
  %18 = load ptr, ptr %4, align 8, !tbaa !28
  %19 = getelementptr inbounds nuw %struct.UCHARBUF, ptr %18, i32 0, i32 2
  %20 = load ptr, ptr %19, align 8, !tbaa !32
  %21 = icmp uge ptr %17, %20
  br i1 %21, label %22, label %38

22:                                               ; preds = %14
  %23 = load ptr, ptr %4, align 8, !tbaa !28
  %24 = getelementptr inbounds nuw %struct.UCHARBUF, ptr %23, i32 0, i32 4
  %25 = load i32, ptr %24, align 4, !tbaa !33
  %26 = icmp eq i32 %25, 0
  br i1 %26, label %27, label %28

27:                                               ; preds = %22
  store i32 -1, ptr %3, align 4
  br label %45

28:                                               ; preds = %22
  %29 = load ptr, ptr %4, align 8, !tbaa !28
  %30 = load ptr, ptr %5, align 8, !tbaa !15
  %31 = call noundef ptr @_ZL15ucbuf_fillucbufP8UCHARBUFP10UErrorCode(ptr noundef %29, ptr noundef %30)
  store ptr %31, ptr %4, align 8, !tbaa !28
  %32 = load ptr, ptr %5, align 8, !tbaa !15
  %33 = load i32, ptr %32, align 4, !tbaa !24
  %34 = call noundef signext i8 @_ZL9U_FAILURE10UErrorCode(i32 noundef %33)
  %35 = icmp ne i8 %34, 0
  br i1 %35, label %36, label %37

36:                                               ; preds = %28
  store i32 -1, ptr %3, align 4
  br label %45

37:                                               ; preds = %28
  br label %38

38:                                               ; preds = %37, %14
  %39 = load ptr, ptr %4, align 8, !tbaa !28
  %40 = getelementptr inbounds nuw %struct.UCHARBUF, ptr %39, i32 0, i32 1
  %41 = load ptr, ptr %40, align 8, !tbaa !30
  %42 = getelementptr inbounds nuw i16, ptr %41, i32 1
  store ptr %42, ptr %40, align 8, !tbaa !30
  %43 = load i16, ptr %41, align 2, !tbaa !26
  %44 = zext i16 %43 to i32
  store i32 %44, ptr %3, align 4
  br label %45

45:                                               ; preds = %38, %36, %27, %13
  %46 = load i32, ptr %3, align 4
  ret i32 %46
}