; Function Attrs: mustprogress uwtable
define range(i32 -1, 65536) i32 @ucbuf_getc(ptr noundef %0, ptr noundef %1) local_unnamed_addr #0 {
  %3 = icmp eq ptr %1, null
  br i1 %3, label %26, label %4

4:                                                ; preds = %2
  %5 = load i32, ptr %1, align 4, !tbaa !14
  %6 = icmp slt i32 %5, 1
  br i1 %6, label %7, label %26

7:                                                ; preds = %4
  %8 = getelementptr inbounds nuw i8, ptr %0, i64 8
  %9 = load ptr, ptr %8, align 8, !tbaa !16
  %10 = getelementptr inbounds nuw i8, ptr %0, i64 16
  %11 = load ptr, ptr %10, align 8, !tbaa !19
  %.not11 = icmp ult ptr %9, %11
  br i1 %.not11, label %20, label %12

12:                                               ; preds = %7
  %13 = getelementptr inbounds nuw i8, ptr %0, i64 28
  %14 = load i32, ptr %13, align 4, !tbaa !20
  %15 = icmp eq i32 %14, 0
  br i1 %15, label %26, label %16

16:                                               ; preds = %12
  %17 = tail call fastcc noundef ptr @_ZL15ucbuf_fillucbufP8UCHARBUFP10UErrorCode(ptr noundef nonnull %0, ptr noundef nonnull %1)
  %18 = load i32, ptr %1, align 4, !tbaa !14
  %19 = icmp slt i32 %18, 1
  br i1 %19, label %._crit_edge, label %26

._crit_edge:                                      ; preds = %16
  %.phi.trans.insert = getelementptr inbounds nuw i8, ptr %17, i64 8
  %.pre = load ptr, ptr %.phi.trans.insert, align 8, !tbaa !16
  br label %20

20:                                               ; preds = %._crit_edge, %7
  %21 = phi ptr [ %.pre, %._crit_edge ], [ %9, %7 ]
  %.09 = phi ptr [ %17, %._crit_edge ], [ %0, %7 ]
  %22 = getelementptr inbounds nuw i8, ptr %.09, i64 8
  %23 = getelementptr inbounds nuw i8, ptr %21, i64 2
  store ptr %23, ptr %22, align 8, !tbaa !16
  %24 = load i16, ptr %21, align 2, !tbaa !21
  %25 = zext i16 %24 to i32
  br label %26

26:                                               ; preds = %16, %12, %2, %4, %20
  %.0 = phi i32 [ %25, %20 ], [ 0, %4 ], [ 0, %2 ], [ -1, %12 ], [ -1, %16 ]
  ret i32 %.0
}